; Function Attrs: mustprogress uwtable
define hidden noundef zeroext i1 @_ZNK4cvc58internal13preprocessing6passes8BoolToBV13needToRebuildENS0_12NodeTemplateILb0EEE(ptr noundef nonnull align 8 dereferenceable(204) %this, ptr nocapture noundef readonly %n) local_unnamed_addr #3 align 2 personality ptr @__gxx_personality_v0 {
entry:
  %ref.tmp = alloca %"class.cvc5::internal::NodeTemplate", align 8
  %0 = load ptr, ptr %n, align 8
  %d_kind.i.i.i.i = getelementptr inbounds i8, ptr %0, i64 8
  %bf.load.i.i.i.i = load i16, ptr %d_kind.i.i.i.i, align 8
  %bf.clear.i.i.i.i = and i16 %bf.load.i.i.i.i, 1023
  %bf.cast.i.i.i.i = zext nneg i16 %bf.clear.i.i.i.i to i32
  %cmp.i.i.i.i.i = icmp eq i16 %bf.clear.i.i.i.i, 1023
  %cond.i.i.i.i.i = select i1 %cmp.i.i.i.i.i, i32 -1, i32 %bf.cast.i.i.i.i
  %call2.i.i.i = tail call noundef i32 @_ZN4cvc58internal4kind10metaKindOfENS1_6Kind_tE(i32 noundef %cond.i.i.i.i.i)
  %cmp.i.i = icmp eq i32 %call2.i.i.i, 2
  %spec.select.v.i.i = select i1 %cmp.i.i, i64 24, i64 16
  %spec.select.i.i = getelementptr inbounds i8, ptr %0, i64 %spec.select.v.i.i
  %1 = load ptr, ptr %n, align 8
  %d_children.i.i = getelementptr inbounds i8, ptr %1, i64 16
  %d_nchildren.i.i = getelementptr inbounds i8, ptr %1, i64 12
  %bf.load.i.i = load i32, ptr %d_nchildren.i.i, align 4
  %bf.clear.i.i = and i32 %bf.load.i.i, 67108863
  %idx.ext.i.i = zext nneg i32 %bf.clear.i.i to i64
  %add.ptr.i.i = getelementptr inbounds ptr, ptr %d_children.i.i, i64 %idx.ext.i.i
  %cmp.i17.not = icmp eq ptr %spec.select.i.i, %add.ptr.i.i
  br i1 %cmp.i17.not, label %return, label %for.body

for.body:                                         ; preds = %entry, %_ZN4cvc58internal12NodeTemplateILb1EED2Ev.exit
  %__begin3.sroa.0.018 = phi ptr [ %incdec.ptr.i, %_ZN4cvc58internal12NodeTemplateILb1EED2Ev.exit ], [ %spec.select.i.i, %entry ]
  %2 = load ptr, ptr %__begin3.sroa.0.018, align 8, !noalias !31
  store ptr %2, ptr %ref.tmp, align 8
  %bf.load.i.i3 = load i64, ptr %2, align 8
  %bf.lshr.i.i = lshr i64 %bf.load.i.i3, 40
  %3 = trunc i64 %bf.lshr.i.i to i32
  %bf.cast.i.i = and i32 %3, 1048575
  %cmp.i.i4 = icmp ult i32 %bf.cast.i.i, 1048574
  br i1 %cmp.i.i4, label %if.then.i.i, label %if.else.i.i

if.then.i.i:                                      ; preds = %for.body
  %bf.value.i.i = add i64 %bf.load.i.i3, 1099511627776
  %bf.shl.i.i = and i64 %bf.value.i.i, 1152920405095219200
  %bf.clear7.i.i = and i64 %bf.load.i.i3, -1152920405095219201
  %bf.set.i.i = or disjoint i64 %bf.shl.i.i, %bf.clear7.i.i
  store i64 %bf.set.i.i, ptr %2, align 8
  br label %invoke.cont

if.else.i.i:                                      ; preds = %for.body
  %cmp12.i.i = icmp eq i32 %bf.cast.i.i, 1048574
  br i1 %cmp12.i.i, label %if.then13.i.i, label %invoke.cont

if.then13.i.i:                                    ; preds = %if.else.i.i
  %bf.set23.i.i = or i64 %bf.load.i.i3, 1152920405095219200
  store i64 %bf.set23.i.i, ptr %2, align 8
  call void @_ZN4cvc58internal4expr9NodeValue20markRefCountMaxedOutEv(ptr noundef nonnull align 8 dereferenceable(16) %2)
  br label %invoke.cont

invoke.cont:                                      ; preds = %if.then13.i.i, %if.else.i.i, %if.then.i.i
  %call8 = invoke noundef zeroext i1 @_ZNK4cvc58internal13preprocessing6passes8BoolToBV7inCacheERKNS0_12NodeTemplateILb1EEE(ptr noundef nonnull align 8 dereferenceable(204) %this, ptr noundef nonnull align 8 dereferenceable(8) %ref.tmp)
          to label %cleanup unwind label %lpad6

lpad6:                                            ; preds = %invoke.cont
  %4 = landingpad { ptr, i32 }
          cleanup
  call void @_ZN4cvc58internal12NodeTemplateILb1EED2Ev(ptr noundef nonnull align 8 dereferenceable(8) %ref.tmp) #15
  resume { ptr, i32 } %4

cleanup:                                          ; preds = %invoke.cont
  %5 = load ptr, ptr %ref.tmp, align 8
  %bf.load.i.i5 = load i64, ptr %5, align 8
  %6 = and i64 %bf.load.i.i5, 1152920405095219200
  %cmp.not.i.i = icmp eq i64 %6, 1152920405095219200
  br i1 %cmp.not.i.i, label %_ZN4cvc58internal12NodeTemplateILb1EED2Ev.exit, label %if.then.i.i6

if.then.i.i6:                                     ; preds = %cleanup
  %bf.value.i.i7 = add i64 %bf.load.i.i5, 1152920405095219200
  %bf.shl.i.i8 = and i64 %bf.value.i.i7, 1152920405095219200
  %bf.clear7.i.i9 = and i64 %bf.load.i.i5, -1152920405095219201
  %bf.set.i.i10 = or disjoint i64 %bf.shl.i.i8, %bf.clear7.i.i9
  store i64 %bf.set.i.i10, ptr %5, align 8
  %cmp12.i.i11 = icmp eq i64 %bf.shl.i.i8, 0
  br i1 %cmp12.i.i11, label %if.then13.i.i12, label %_ZN4cvc58internal12NodeTemplateILb1EED2Ev.exit

if.then13.i.i12:                                  ; preds = %if.then.i.i6
  invoke void @_ZN4cvc58internal4expr9NodeValue15markForDeletionEv(ptr noundef nonnull align 8 dereferenceable(16) %5)
          to label %_ZN4cvc58internal12NodeTemplateILb1EED2Ev.exit unwind label %terminate.lpad.i

terminate.lpad.i:                                 ; preds = %if.then13.i.i12
  %7 = landingpad { ptr, i32 }
          catch ptr null
  %8 = extractvalue { ptr, i32 } %7, 0
  call void @__clang_call_terminate(ptr %8) #16
  unreachable

_ZN4cvc58internal12NodeTemplateILb1EED2Ev.exit:   ; preds = %cleanup, %if.then.i.i6, %if.then13.i.i12
  %incdec.ptr.i = getelementptr inbounds i8, ptr %__begin3.sroa.0.018, i64 8
  %cmp.i.not = icmp eq ptr %incdec.ptr.i, %add.ptr.i.i
  %or.cond = select i1 %call8, i1 true, i1 %cmp.i.not
  br i1 %or.cond, label %return, label %for.body

return:                                           ; preds = %_ZN4cvc58internal12NodeTemplateILb1EED2Ev.exit, %entry
  %cmp.i.lcssa = phi i1 [ false, %entry ], [ %call8, %_ZN4cvc58internal12NodeTemplateILb1EED2Ev.exit ]
  ret i1 %cmp.i.lcssa
}